target datalayout = "e-m:e-p270:32:32-p271:32:32-p272:64:64-i64:64-i128:128-f80:128-n8:16:32:64-S128"
target triple = "x86_64-pc-linux-gnu"

@PyExc_AssertionError = external global ptr, align 8
@.str.364 = private unnamed_addr constant [5 x i8] c"z#|n\00", align 1
@.str.370 = private unnamed_addr constant [39 x i8] c"invalid size in unicode_fromwidechar()\00", align 1

; Function Attrs: nounwind uwtable
define internal ptr @unicode_fromwidechar(ptr noundef %0, ptr noundef %1) #0 {
  %3 = alloca ptr, align 8
  %4 = alloca ptr, align 8
  %5 = alloca ptr, align 8
  %6 = alloca ptr, align 8
  %7 = alloca i64, align 8
  %8 = alloca i64, align 8
  %9 = alloca i32, align 4
  store ptr %0, ptr %4, align 8, !tbaa !3
  store ptr %1, ptr %5, align 8, !tbaa !3
  call void @llvm.lifetime.start.p0(i64 8, ptr %6) #7
  call void @llvm.lifetime.start.p0(i64 8, ptr %7) #7
  call void @llvm.lifetime.start.p0(i64 8, ptr %8) #7
  store i64 -100, ptr %8, align 8, !tbaa !12
  %10 = load ptr, ptr %5, align 8, !tbaa !3
  %11 = call i32 (ptr, ptr, ...) @PyArg_ParseTuple(ptr noundef %10, ptr noundef @.str.364, ptr noundef %6, ptr noundef %7, ptr noundef %8)
  %12 = icmp ne i32 %11, 0
  br i1 %12, label %14, label %13

13:                                               ; preds = %2
  store ptr null, ptr %3, align 8
  store i32 1, ptr %9, align 4
  br label %30

14:                                               ; preds = %2
  %15 = load i64, ptr %8, align 8, !tbaa !12
  %16 = icmp eq i64 %15, -100
  br i1 %16, label %17, label %26

17:                                               ; preds = %14
  %18 = load i64, ptr %7, align 8, !tbaa !12
  %19 = srem i64 %18, 4
  %20 = icmp ne i64 %19, 0
  br i1 %20, label %21, label %23

21:                                               ; preds = %17
  %22 = load ptr, ptr @PyExc_AssertionError, align 8, !tbaa !3
  call void @PyErr_SetString(ptr noundef %22, ptr noundef @.str.370)
  store ptr null, ptr %3, align 8
  store i32 1, ptr %9, align 4
  br label %30

23:                                               ; preds = %17
  %24 = load i64, ptr %7, align 8, !tbaa !12
  %25 = sdiv i64 %24, 4
  store i64 %25, ptr %8, align 8, !tbaa !12
  br label %26

26:                                               ; preds = %23, %14
  %27 = load ptr, ptr %6, align 8, !tbaa !8
  %28 = load i64, ptr %8, align 8, !tbaa !12
  %29 = call ptr @PyUnicode_FromWideChar(ptr noundef %27, i64 noundef %28)
  store ptr %29, ptr %3, align 8
  store i32 1, ptr %9, align 4
  br label %30

30:                                               ; preds = %26, %21, %13
  call void @llvm.lifetime.end.p0(i64 8, ptr %8) #7
  call void @llvm.lifetime.end.p0(i64 8, ptr %7) #7
  call void @llvm.lifetime.end.p0(i64 8, ptr %6) #7
  %31 = load ptr, ptr %3, align 8
  ret ptr %31
}