; Function Attrs: nounwind uwtable
define internal ptr @unicode_fromwidechar(ptr readnone captures(none) %0, ptr noundef %1) #0 {
  %3 = alloca ptr, align 8
  %4 = alloca i64, align 8
  %5 = alloca i64, align 8
  call void @llvm.lifetime.start.p0(i64 8, ptr nonnull %3) #4
  call void @llvm.lifetime.start.p0(i64 8, ptr nonnull %4) #4
  call void @llvm.lifetime.start.p0(i64 8, ptr nonnull %5) #4
  store i64 -100, ptr %5, align 8, !tbaa !10
  %6 = call i32 (ptr, ptr, ...) @PyArg_ParseTuple(ptr noundef %1, ptr noundef nonnull @.str.364, ptr noundef nonnull %3, ptr noundef nonnull %4, ptr noundef nonnull %5) #4
  %.not = icmp eq i32 %6, 0
  br i1 %.not, label %21, label %7

7:                                                ; preds = %2
  %8 = load i64, ptr %5, align 8, !tbaa !10
  %9 = icmp eq i64 %8, -100
  br i1 %9, label %10, label %17

10:                                               ; preds = %7
  %11 = load i64, ptr %4, align 8, !tbaa !10
  %12 = and i64 %11, 3
  %.not2 = icmp eq i64 %12, 0
  br i1 %.not2, label %15, label %13

13:                                               ; preds = %10
  %14 = load ptr, ptr @PyExc_AssertionError, align 8, !tbaa !8
  call void @PyErr_SetString(ptr noundef %14, ptr noundef nonnull @.str.370) #4
  br label %21

15:                                               ; preds = %10
  %16 = ashr exact i64 %11, 2
  store i64 %16, ptr %5, align 8, !tbaa !10
  br label %17

17:                                               ; preds = %15, %7
  %18 = phi i64 [ %16, %15 ], [ %8, %7 ]
  %19 = load ptr, ptr %3, align 8, !tbaa !3
  %20 = call ptr @PyUnicode_FromWideChar(ptr noundef %19, i64 noundef %18) #4
  br label %21

21:                                               ; preds = %2, %17, %13
  %.0 = phi ptr [ null, %13 ], [ %20, %17 ], [ null, %2 ]
  call void @llvm.lifetime.end.p0(i64 8, ptr nonnull %5) #4
  call void @llvm.lifetime.end.p0(i64 8, ptr nonnull %4) #4
  call void @llvm.lifetime.end.p0(i64 8, ptr nonnull %3) #4
  ret ptr %.0
}